; Listing generated by Microsoft (R) Optimizing Compiler Version 19.25.28614.0 

	TITLE	C:\Users\Administrator\source\repos\chapter13\quickfind.c
	.686P
	.XMM
	include listing.inc
	.model	flat

INCLUDELIB MSVCRTD
INCLUDELIB OLDNAMES

msvcjmc	SEGMENT
__F66CEB67_corecrt_stdio_config@h DB 01H
__101834BA_corecrt_wstdio@h DB 01H
__AD6A91B7_stdio@h DB 01H
__45F4AF76_corecrt_wtime@h DB 01H
__8AA3BE86_time@h DB 01H
__B295B949_quickfind@c DB 01H
msvcjmc	ENDS
PUBLIC	___local_stdio_printf_options
PUBLIC	___local_stdio_scanf_options
PUBLIC	__vfprintf_l
PUBLIC	_printf
PUBLIC	__vfscanf_l
PUBLIC	_scanf
PUBLIC	_quick_find
PUBLIC	_swap
PUBLIC	_partion
PUBLIC	_print
PUBLIC	_main
PUBLIC	__JustMyCode_Default
PUBLIC	??_C@_0EF@HDLEPIF@input?5a?5num?5less?5than?5or?5equal?5@ ; `string'
PUBLIC	??_C@_02DPKJAMEF@?$CFd@				; `string'
PUBLIC	??_C@_0BI@BFNLLBFL@target?5?$DN?5?$CFd?0value?5?$DN?5?$CFd?6@ ; `string'
PUBLIC	?__LINE__Var@?0??quick_find@@9@9		; `quick_find'::`1'::__LINE__Var
PUBLIC	??_C@_1HE@JANBDLPE@?$AAC?$AA?3?$AA?2?$AAU?$AAs?$AAe?$AAr?$AAs?$AA?2?$AAA?$AAd?$AAm?$AAi?$AAn?$AAi@ ; `string'
PUBLIC	??_C@_1HI@BJJHDCPD@?$AAf?$AAi?$AAr?$AAs?$AAt?$AA?5?$AA?$DM?$AA?$DN?$AA?5?$AAl?$AAa?$AAs?$AAt?$AA?5?$AA?$CG@ ; `string'
PUBLIC	??_C@_0L@GFMKEKLP@?$CF5d?5?3?5?$CF5d?6@		; `string'
EXTRN	__imp____acrt_iob_func:PROC
EXTRN	__imp____stdio_common_vfprintf:PROC
EXTRN	__imp____stdio_common_vfscanf:PROC
EXTRN	__imp__free:PROC
EXTRN	__imp__malloc:PROC
EXTRN	__imp__srand:PROC
EXTRN	__imp__rand:PROC
EXTRN	__imp___wassert:PROC
EXTRN	__imp___time64:PROC
EXTRN	@_RTC_CheckStackVars@8:PROC
EXTRN	@__CheckForDebuggerJustMyCode@4:PROC
EXTRN	@__security_check_cookie@4:PROC
EXTRN	__RTC_CheckEsp:PROC
EXTRN	__RTC_InitBase:PROC
EXTRN	__RTC_Shutdown:PROC
EXTRN	___security_cookie:DWORD
_DATA	SEGMENT
COMM	?_OptionsStorage@?1??__local_stdio_printf_options@@9@9:QWORD							; `__local_stdio_printf_options'::`2'::_OptionsStorage
COMM	?_OptionsStorage@?1??__local_stdio_scanf_options@@9@9:QWORD							; `__local_stdio_scanf_options'::`2'::_OptionsStorage
_DATA	ENDS
;	COMDAT rtc$TMZ
rtc$TMZ	SEGMENT
__RTC_Shutdown.rtc$TMZ DD FLAT:__RTC_Shutdown
rtc$TMZ	ENDS
;	COMDAT rtc$IMZ
rtc$IMZ	SEGMENT
__RTC_InitBase.rtc$IMZ DD FLAT:__RTC_InitBase
rtc$IMZ	ENDS
;	COMDAT ??_C@_0L@GFMKEKLP@?$CF5d?5?3?5?$CF5d?6@
CONST	SEGMENT
??_C@_0L@GFMKEKLP@?$CF5d?5?3?5?$CF5d?6@ DB '%5d : %5d', 0aH, 00H ; `string'
CONST	ENDS
;	COMDAT ??_C@_1HI@BJJHDCPD@?$AAf?$AAi?$AAr?$AAs?$AAt?$AA?5?$AA?$DM?$AA?$DN?$AA?5?$AAl?$AAa?$AAs?$AAt?$AA?5?$AA?$CG@
CONST	SEGMENT
??_C@_1HI@BJJHDCPD@?$AAf?$AAi?$AAr?$AAs?$AAt?$AA?5?$AA?$DM?$AA?$DN?$AA?5?$AAl?$AAa?$AAs?$AAt?$AA?5?$AA?$CG@ DB 'f'
	DB	00H, 'i', 00H, 'r', 00H, 's', 00H, 't', 00H, ' ', 00H, '<', 00H
	DB	'=', 00H, ' ', 00H, 'l', 00H, 'a', 00H, 's', 00H, 't', 00H, ' '
	DB	00H, '&', 00H, '&', 00H, ' ', 00H, 't', 00H, 'a', 00H, 'r', 00H
	DB	'g', 00H, 'e', 00H, 't', 00H, ' ', 00H, '>', 00H, '=', 00H, ' '
	DB	00H, '1', 00H, ' ', 00H, '&', 00H, '&', 00H, ' ', 00H, '(', 00H
	DB	'(', 00H, 't', 00H, 'a', 00H, 'r', 00H, 'g', 00H, 'e', 00H, 't'
	DB	00H, '-', 00H, '1', 00H, ')', 00H, ' ', 00H, '<', 00H, '=', 00H
	DB	' ', 00H, 'l', 00H, 'a', 00H, 's', 00H, 't', 00H, ' ', 00H, '-'
	DB	00H, 'f', 00H, 'i', 00H, 'r', 00H, 's', 00H, 't', 00H, ')', 00H
	DB	00H, 00H					; `string'
CONST	ENDS
;	COMDAT ??_C@_1HE@JANBDLPE@?$AAC?$AA?3?$AA?2?$AAU?$AAs?$AAe?$AAr?$AAs?$AA?2?$AAA?$AAd?$AAm?$AAi?$AAn?$AAi@
CONST	SEGMENT
??_C@_1HE@JANBDLPE@?$AAC?$AA?3?$AA?2?$AAU?$AAs?$AAe?$AAr?$AAs?$AA?2?$AAA?$AAd?$AAm?$AAi?$AAn?$AAi@ DB 'C'
	DB	00H, ':', 00H, '\', 00H, 'U', 00H, 's', 00H, 'e', 00H, 'r', 00H
	DB	's', 00H, '\', 00H, 'A', 00H, 'd', 00H, 'm', 00H, 'i', 00H, 'n'
	DB	00H, 'i', 00H, 's', 00H, 't', 00H, 'r', 00H, 'a', 00H, 't', 00H
	DB	'o', 00H, 'r', 00H, '\', 00H, 's', 00H, 'o', 00H, 'u', 00H, 'r'
	DB	00H, 'c', 00H, 'e', 00H, '\', 00H, 'r', 00H, 'e', 00H, 'p', 00H
	DB	'o', 00H, 's', 00H, '\', 00H, 'c', 00H, 'h', 00H, 'a', 00H, 'p'
	DB	00H, 't', 00H, 'e', 00H, 'r', 00H, '1', 00H, '3', 00H, '\', 00H
	DB	'q', 00H, 'u', 00H, 'i', 00H, 'c', 00H, 'k', 00H, 'f', 00H, 'i'
	DB	00H, 'n', 00H, 'd', 00H, '.', 00H, 'c', 00H, 00H, 00H ; `string'
CONST	ENDS
;	COMDAT ?__LINE__Var@?0??quick_find@@9@9
_DATA	SEGMENT
?__LINE__Var@?0??quick_find@@9@9 DD 029H		; `quick_find'::`1'::__LINE__Var
_DATA	ENDS
;	COMDAT ??_C@_0BI@BFNLLBFL@target?5?$DN?5?$CFd?0value?5?$DN?5?$CFd?6@
CONST	SEGMENT
??_C@_0BI@BFNLLBFL@target?5?$DN?5?$CFd?0value?5?$DN?5?$CFd?6@ DB 'target '
	DB	'= %d,value = %d', 0aH, 00H			; `string'
CONST	ENDS
;	COMDAT ??_C@_02DPKJAMEF@?$CFd@
CONST	SEGMENT
??_C@_02DPKJAMEF@?$CFd@ DB '%d', 00H			; `string'
CONST	ENDS
;	COMDAT ??_C@_0EF@HDLEPIF@input?5a?5num?5less?5than?5or?5equal?5@
CONST	SEGMENT
??_C@_0EF@HDLEPIF@input?5a?5num?5less?5than?5or?5equal?5@ DB 'input a num'
	DB	' less than or equal %d and greater than 0,exit enter ''q''', 0aH
	DB	00H						; `string'
CONST	ENDS
; Function compile flags: /Odt
;	COMDAT __JustMyCode_Default
_TEXT	SEGMENT
__JustMyCode_Default PROC				; COMDAT
	push	ebp
	mov	ebp, esp
	pop	ebp
	ret	0
__JustMyCode_Default ENDP
_TEXT	ENDS
; Function compile flags: /Odtp /RTCsu /ZI
; File C:\Users\Administrator\source\repos\chapter13\quickfind.c
;	COMDAT _main
_TEXT	SEGMENT
_target_value$1 = -60					; size = 4
_array$ = -48						; size = 4
_target$ = -24						; size = 4
_i$ = -12						; size = 4
__$ArrayPad$ = -4					; size = 4
_main	PROC						; COMDAT

; 15   : int main(void) {

	push	ebp
	mov	ebp, esp
	sub	esp, 256				; 00000100H
	push	ebx
	push	esi
	push	edi
	lea	edi, DWORD PTR [ebp-256]
	mov	ecx, 64					; 00000040H
	mov	eax, -858993460				; ccccccccH
	rep stosd
	mov	eax, DWORD PTR ___security_cookie
	xor	eax, ebp
	mov	DWORD PTR __$ArrayPad$[ebp], eax
	mov	ecx, OFFSET __B295B949_quickfind@c
	call	@__CheckForDebuggerJustMyCode@4

; 16   :     int i;
; 17   :     int target;
; 18   :     int target_value;
; 19   :     int* array =(int*) malloc(SIZE*sizeof(int));

	mov	esi, esp
	push	80					; 00000050H
	call	DWORD PTR __imp__malloc
	add	esp, 4
	cmp	esi, esp
	call	__RTC_CheckEsp
	mov	DWORD PTR _array$[ebp], eax

; 20   :     srand(time(NULL));

	push	0
	call	_time
	add	esp, 4
	mov	esi, esp
	push	eax
	call	DWORD PTR __imp__srand
	add	esp, 4
	cmp	esi, esp
	call	__RTC_CheckEsp

; 21   :     for ( i = 0; i < SIZE; i++)

	mov	DWORD PTR _i$[ebp], 0
	jmp	SHORT $LN4@main
$LN2@main:
	mov	eax, DWORD PTR _i$[ebp]
	add	eax, 1
	mov	DWORD PTR _i$[ebp], eax
$LN4@main:
	cmp	DWORD PTR _i$[ebp], 20			; 00000014H
	jge	SHORT $LN3@main

; 22   :     {
; 23   :         array[i] = rand();

	mov	esi, esp
	call	DWORD PTR __imp__rand
	cmp	esi, esp
	call	__RTC_CheckEsp
	mov	ecx, DWORD PTR _i$[ebp]
	mov	edx, DWORD PTR _array$[ebp]
	mov	DWORD PTR [edx+ecx*4], eax

; 24   :     }

	jmp	SHORT $LN2@main
$LN3@main:

; 25   :     printf("input a num less than or equal %d and greater than 0,exit enter 'q'\n",SIZE);

	push	20					; 00000014H
	push	OFFSET ??_C@_0EF@HDLEPIF@input?5a?5num?5less?5than?5or?5equal?5@
	call	_printf
	add	esp, 8
$LN5@main:

; 26   :     while (scanf("%d",&target) == 1 && target >= 1 && target <= SIZE)

	lea	eax, DWORD PTR _target$[ebp]
	push	eax
	push	OFFSET ??_C@_02DPKJAMEF@?$CFd@
	call	_scanf
	add	esp, 8
	cmp	eax, 1
	jne	SHORT $LN6@main
	cmp	DWORD PTR _target$[ebp], 1
	jl	SHORT $LN6@main
	cmp	DWORD PTR _target$[ebp], 20		; 00000014H
	jg	SHORT $LN6@main

; 27   :     {
; 28   :         int target_value = quick_find(array, 0, SIZE - 1, target);

	mov	eax, DWORD PTR _target$[ebp]
	push	eax
	push	19					; 00000013H
	push	0
	mov	ecx, DWORD PTR _array$[ebp]
	push	ecx
	call	_quick_find
	add	esp, 16					; 00000010H
	mov	DWORD PTR _target_value$1[ebp], eax

; 29   :         printf("target = %d,value = %d\n", target, target_value);

	mov	eax, DWORD PTR _target_value$1[ebp]
	push	eax
	mov	ecx, DWORD PTR _target$[ebp]
	push	ecx
	push	OFFSET ??_C@_0BI@BFNLLBFL@target?5?$DN?5?$CFd?0value?5?$DN?5?$CFd?6@
	call	_printf
	add	esp, 12					; 0000000cH

; 30   :         print(array, SIZE);

	push	20					; 00000014H
	mov	eax, DWORD PTR _array$[ebp]
	push	eax
	call	_print
	add	esp, 8

; 31   :     }

	jmp	SHORT $LN5@main
$LN6@main:

; 32   :     free(array);

	mov	esi, esp
	mov	eax, DWORD PTR _array$[ebp]
	push	eax
	call	DWORD PTR __imp__free
	add	esp, 4
	cmp	esi, esp
	call	__RTC_CheckEsp

; 33   :     return 0;

	xor	eax, eax

; 34   : }

	push	edx
	mov	ecx, ebp
	push	eax
	lea	edx, DWORD PTR $LN10@main
	call	@_RTC_CheckStackVars@8
	pop	eax
	pop	edx
	pop	edi
	pop	esi
	pop	ebx
	mov	ecx, DWORD PTR __$ArrayPad$[ebp]
	xor	ecx, ebp
	call	@__security_check_cookie@4
	add	esp, 256				; 00000100H
	cmp	ebp, esp
	call	__RTC_CheckEsp
	mov	esp, ebp
	pop	ebp
	ret	0
$LN10@main:
	DD	1
	DD	$LN9@main
$LN9@main:
	DD	-24					; ffffffe8H
	DD	4
	DD	$LN8@main
$LN8@main:
	DB	116					; 00000074H
	DB	97					; 00000061H
	DB	114					; 00000072H
	DB	103					; 00000067H
	DB	101					; 00000065H
	DB	116					; 00000074H
	DB	0
_main	ENDP
_TEXT	ENDS
; Function compile flags: /Odtp /RTCsu /ZI
; File C:\Users\Administrator\source\repos\chapter13\quickfind.c
;	COMDAT _print
_TEXT	SEGMENT
_i$ = -8						; size = 4
_array$ = 8						; size = 4
_length$ = 12						; size = 4
_print	PROC						; COMDAT

; 96   : void print(int array[], int length) {

	push	ebp
	mov	ebp, esp
	sub	esp, 204				; 000000ccH
	push	ebx
	push	esi
	push	edi
	lea	edi, DWORD PTR [ebp-204]
	mov	ecx, 51					; 00000033H
	mov	eax, -858993460				; ccccccccH
	rep stosd
	mov	ecx, OFFSET __B295B949_quickfind@c
	call	@__CheckForDebuggerJustMyCode@4

; 97   :     size_t i;
; 98   :     i = -1;

	mov	DWORD PTR _i$[ebp], -1

; 99   :     for ( i = 0; i < length; i++)

	mov	DWORD PTR _i$[ebp], 0
	jmp	SHORT $LN4@print
$LN2@print:
	mov	eax, DWORD PTR _i$[ebp]
	add	eax, 1
	mov	DWORD PTR _i$[ebp], eax
$LN4@print:
	mov	eax, DWORD PTR _i$[ebp]
	cmp	eax, DWORD PTR _length$[ebp]
	jae	SHORT $LN1@print

; 100  :     {
; 101  :         printf("%5d\x20:\x20%5d\n",i+1,array[i]);

	mov	eax, DWORD PTR _i$[ebp]
	mov	ecx, DWORD PTR _array$[ebp]
	mov	edx, DWORD PTR [ecx+eax*4]
	push	edx
	mov	eax, DWORD PTR _i$[ebp]
	add	eax, 1
	push	eax
	push	OFFSET ??_C@_0L@GFMKEKLP@?$CF5d?5?3?5?$CF5d?6@
	call	_printf
	add	esp, 12					; 0000000cH

; 102  :     }

	jmp	SHORT $LN2@print
$LN1@print:

; 103  : }

	pop	edi
	pop	esi
	pop	ebx
	add	esp, 204				; 000000ccH
	cmp	ebp, esp
	call	__RTC_CheckEsp
	mov	esp, ebp
	pop	ebp
	ret	0
_print	ENDP
_TEXT	ENDS
; Function compile flags: /Odtp /RTCsu /ZI
; File C:\Users\Administrator\source\repos\chapter13\quickfind.c
;	COMDAT _partion
_TEXT	SEGMENT
_j$ = -44						; size = 4
_i$ = -32						; size = 4
_pivot_value$ = -20					; size = 4
_pivot$ = -8						; size = 4
_array$ = 8						; size = 4
_left$ = 12						; size = 4
_right$ = 16						; size = 4
_partion PROC						; COMDAT

; 63   : int partion(int array[],int left,int right) {

	push	ebp
	mov	ebp, esp
	sub	esp, 240				; 000000f0H
	push	ebx
	push	esi
	push	edi
	lea	edi, DWORD PTR [ebp-240]
	mov	ecx, 60					; 0000003cH
	mov	eax, -858993460				; ccccccccH
	rep stosd
	mov	ecx, OFFSET __B295B949_quickfind@c
	call	@__CheckForDebuggerJustMyCode@4

; 64   :     //取最右边元素作为分区
; 65   :     int pivot = right;

	mov	eax, DWORD PTR _right$[ebp]
	mov	DWORD PTR _pivot$[ebp], eax

; 66   :     int pivot_value = array[right];

	mov	eax, DWORD PTR _right$[ebp]
	mov	ecx, DWORD PTR _array$[ebp]
	mov	edx, DWORD PTR [ecx+eax*4]
	mov	DWORD PTR _pivot_value$[ebp], edx

; 67   :     int i = left;

	mov	eax, DWORD PTR _left$[ebp]
	mov	DWORD PTR _i$[ebp], eax

; 68   :     int j = right - 1;

	mov	eax, DWORD PTR _right$[ebp]
	sub	eax, 1
	mov	DWORD PTR _j$[ebp], eax
$LN2@partion:

; 69   :     while (true)

	mov	eax, 1
	test	eax, eax
	je	SHORT $LN3@partion
$LN4@partion:

; 70   :     {
; 71   :         while (i< right && array[i] <= pivot_value)

	mov	eax, DWORD PTR _i$[ebp]
	cmp	eax, DWORD PTR _right$[ebp]
	jge	SHORT $LN6@partion
	mov	eax, DWORD PTR _i$[ebp]
	mov	ecx, DWORD PTR _array$[ebp]
	mov	edx, DWORD PTR [ecx+eax*4]
	cmp	edx, DWORD PTR _pivot_value$[ebp]
	jg	SHORT $LN6@partion

; 72   :         {
; 73   :             i++;

	mov	eax, DWORD PTR _i$[ebp]
	add	eax, 1
	mov	DWORD PTR _i$[ebp], eax

; 74   :         }

	jmp	SHORT $LN4@partion
$LN6@partion:

; 75   :         while (j >= left && array[j] >= pivot_value)

	mov	eax, DWORD PTR _j$[ebp]
	cmp	eax, DWORD PTR _left$[ebp]
	jl	SHORT $LN7@partion
	mov	eax, DWORD PTR _j$[ebp]
	mov	ecx, DWORD PTR _array$[ebp]
	mov	edx, DWORD PTR [ecx+eax*4]
	cmp	edx, DWORD PTR _pivot_value$[ebp]
	jl	SHORT $LN7@partion

; 76   :         {
; 77   :             j--;

	mov	eax, DWORD PTR _j$[ebp]
	sub	eax, 1
	mov	DWORD PTR _j$[ebp], eax

; 78   :         }

	jmp	SHORT $LN6@partion
$LN7@partion:

; 79   :         if (i > j ) {

	mov	eax, DWORD PTR _i$[ebp]
	cmp	eax, DWORD PTR _j$[ebp]
	jle	SHORT $LN8@partion

; 80   :             break;

	jmp	SHORT $LN3@partion
$LN8@partion:

; 81   :         }
; 82   :         swap(array, i, j);

	mov	eax, DWORD PTR _j$[ebp]
	push	eax
	mov	ecx, DWORD PTR _i$[ebp]
	push	ecx
	mov	edx, DWORD PTR _array$[ebp]
	push	edx
	call	_swap
	add	esp, 12					; 0000000cH

; 83   :     }

	jmp	SHORT $LN2@partion
$LN3@partion:

; 84   :     if (i != pivot) {

	mov	eax, DWORD PTR _i$[ebp]
	cmp	eax, DWORD PTR _pivot$[ebp]
	je	SHORT $LN9@partion

; 85   :         swap(array,i,pivot);

	mov	eax, DWORD PTR _pivot$[ebp]
	push	eax
	mov	ecx, DWORD PTR _i$[ebp]
	push	ecx
	mov	edx, DWORD PTR _array$[ebp]
	push	edx
	call	_swap
	add	esp, 12					; 0000000cH
$LN9@partion:

; 86   :     }
; 87   :     return i;

	mov	eax, DWORD PTR _i$[ebp]

; 88   : }

	pop	edi
	pop	esi
	pop	ebx
	add	esp, 240				; 000000f0H
	cmp	ebp, esp
	call	__RTC_CheckEsp
	mov	esp, ebp
	pop	ebp
	ret	0
_partion ENDP
_TEXT	ENDS
; Function compile flags: /Odtp /RTCsu /ZI
; File C:\Users\Administrator\source\repos\chapter13\quickfind.c
;	COMDAT _swap
_TEXT	SEGMENT
_temp$ = -8						; size = 4
_array$ = 8						; size = 4
_index1$ = 12						; size = 4
_index2$ = 16						; size = 4
_swap	PROC						; COMDAT

; 90   : void swap(int array[], int index1, int index2) {

	push	ebp
	mov	ebp, esp
	sub	esp, 204				; 000000ccH
	push	ebx
	push	esi
	push	edi
	lea	edi, DWORD PTR [ebp-204]
	mov	ecx, 51					; 00000033H
	mov	eax, -858993460				; ccccccccH
	rep stosd
	mov	ecx, OFFSET __B295B949_quickfind@c
	call	@__CheckForDebuggerJustMyCode@4

; 91   :     int temp = array[index1];

	mov	eax, DWORD PTR _index1$[ebp]
	mov	ecx, DWORD PTR _array$[ebp]
	mov	edx, DWORD PTR [ecx+eax*4]
	mov	DWORD PTR _temp$[ebp], edx

; 92   :     array[index1] = array[index2];

	mov	eax, DWORD PTR _index1$[ebp]
	mov	ecx, DWORD PTR _array$[ebp]
	mov	edx, DWORD PTR _index2$[ebp]
	mov	esi, DWORD PTR _array$[ebp]
	mov	edx, DWORD PTR [esi+edx*4]
	mov	DWORD PTR [ecx+eax*4], edx

; 93   :     array[index2] = temp;

	mov	eax, DWORD PTR _index2$[ebp]
	mov	ecx, DWORD PTR _array$[ebp]
	mov	edx, DWORD PTR _temp$[ebp]
	mov	DWORD PTR [ecx+eax*4], edx

; 94   : }

	pop	edi
	pop	esi
	pop	ebx
	add	esp, 204				; 000000ccH
	cmp	ebp, esp
	call	__RTC_CheckEsp
	mov	esp, ebp
	pop	ebp
	ret	0
_swap	ENDP
_TEXT	ENDS
; Function compile flags: /Odtp /RTCsu /ZI
; File C:\Users\Administrator\source\repos\chapter13\quickfind.c
;	COMDAT _quick_find
_TEXT	SEGMENT
_flag$ = -44						; size = 4
_index$ = -32						; size = 4
_j$ = -20						; size = 4
_i$ = -8						; size = 4
_array$ = 8						; size = 4
_first$ = 12						; size = 4
_last$ = 16						; size = 4
_target$ = 20						; size = 4
_quick_find PROC					; COMDAT

; 41   : int quick_find(int array[], int first, int last, int target) {

	push	ebp
	mov	ebp, esp
	sub	esp, 240				; 000000f0H
	push	ebx
	push	esi
	push	edi
	lea	edi, DWORD PTR [ebp-240]
	mov	ecx, 60					; 0000003cH
	mov	eax, -858993460				; ccccccccH
	rep stosd
	mov	ecx, OFFSET __B295B949_quickfind@c
	call	@__CheckForDebuggerJustMyCode@4

; 42   :     assert(first <= last && target >= 1 && ((target-1) <= last -first));

	mov	eax, DWORD PTR _first$[ebp]
	cmp	eax, DWORD PTR _last$[ebp]
	jg	SHORT $LN9@quick_find
	cmp	DWORD PTR _target$[ebp], 1
	jl	SHORT $LN9@quick_find
	mov	ecx, DWORD PTR _target$[ebp]
	sub	ecx, 1
	mov	edx, DWORD PTR _last$[ebp]
	sub	edx, DWORD PTR _first$[ebp]
	cmp	ecx, edx
	jle	SHORT $LN10@quick_find
$LN9@quick_find:
	mov	eax, DWORD PTR ?__LINE__Var@?0??quick_find@@9@9
	add	eax, 1
	mov	esi, esp
	push	eax
	push	OFFSET ??_C@_1HE@JANBDLPE@?$AAC?$AA?3?$AA?2?$AAU?$AAs?$AAe?$AAr?$AAs?$AA?2?$AAA?$AAd?$AAm?$AAi?$AAn?$AAi@
	push	OFFSET ??_C@_1HI@BJJHDCPD@?$AAf?$AAi?$AAr?$AAs?$AAt?$AA?5?$AA?$DM?$AA?$DN?$AA?5?$AAl?$AAa?$AAs?$AAt?$AA?5?$AA?$CG@
	call	DWORD PTR __imp___wassert
	add	esp, 12					; 0000000cH
	cmp	esi, esp
	call	__RTC_CheckEsp
$LN10@quick_find:

; 43   :     int i = first;

	mov	eax, DWORD PTR _first$[ebp]
	mov	DWORD PTR _i$[ebp], eax

; 44   :     int j = last;

	mov	eax, DWORD PTR _last$[ebp]
	mov	DWORD PTR _j$[ebp], eax

; 45   :     int index = 0;

	mov	DWORD PTR _index$[ebp], 0

; 46   :     int flag = 0;

	mov	DWORD PTR _flag$[ebp], 0
$LN2@quick_find:

; 47   :     while (true)

	mov	eax, 1
	test	eax, eax
	je	SHORT $LN1@quick_find

; 48   :     {
; 49   :         index = partion(array, i, j);

	mov	eax, DWORD PTR _j$[ebp]
	push	eax
	mov	ecx, DWORD PTR _i$[ebp]
	push	ecx
	mov	edx, DWORD PTR _array$[ebp]
	push	edx
	call	_partion
	add	esp, 12					; 0000000cH
	mov	DWORD PTR _index$[ebp], eax

; 50   :         flag = target - (index - first +1);

	mov	eax, DWORD PTR _index$[ebp]
	sub	eax, DWORD PTR _first$[ebp]
	add	eax, 1
	mov	ecx, DWORD PTR _target$[ebp]
	sub	ecx, eax
	mov	DWORD PTR _flag$[ebp], ecx

; 51   :         if (flag == 0) {

	jne	SHORT $LN4@quick_find

; 52   :             return array[index];

	mov	eax, DWORD PTR _index$[ebp]
	mov	ecx, DWORD PTR _array$[ebp]
	mov	eax, DWORD PTR [ecx+eax*4]
	jmp	SHORT $LN1@quick_find

; 53   :         }

	jmp	SHORT $LN5@quick_find
$LN4@quick_find:

; 54   :         else if (flag > 0) {

	cmp	DWORD PTR _flag$[ebp], 0
	jle	SHORT $LN6@quick_find

; 55   :             i = index + 1;

	mov	eax, DWORD PTR _index$[ebp]
	add	eax, 1
	mov	DWORD PTR _i$[ebp], eax

; 56   :         }

	jmp	SHORT $LN5@quick_find
$LN6@quick_find:

; 57   :         else {
; 58   :             j = index - 1;

	mov	eax, DWORD PTR _index$[ebp]
	sub	eax, 1
	mov	DWORD PTR _j$[ebp], eax
$LN5@quick_find:

; 59   :         }
; 60   :     }

	jmp	SHORT $LN2@quick_find
$LN1@quick_find:

; 61   : }

	pop	edi
	pop	esi
	pop	ebx
	add	esp, 240				; 000000f0H
	cmp	ebp, esp
	call	__RTC_CheckEsp
	mov	esp, ebp
	pop	ebp
	ret	0
_quick_find ENDP
_TEXT	ENDS
; Function compile flags: /Odtp /RTCsu /ZI
; File C:\Program Files (x86)\Windows Kits\10\Include\10.0.18362.0\ucrt\time.h
;	COMDAT _time
_TEXT	SEGMENT
__Time$ = 8						; size = 4
_time	PROC						; COMDAT

; 535  :         {

	push	ebp
	mov	ebp, esp
	sub	esp, 192				; 000000c0H
	push	ebx
	push	esi
	push	edi
	lea	edi, DWORD PTR [ebp-192]
	mov	ecx, 48					; 00000030H
	mov	eax, -858993460				; ccccccccH
	rep stosd
	mov	ecx, OFFSET __8AA3BE86_time@h
	call	@__CheckForDebuggerJustMyCode@4

; 536  :             return _time64(_Time);

	mov	esi, esp
	mov	eax, DWORD PTR __Time$[ebp]
	push	eax
	call	DWORD PTR __imp___time64
	add	esp, 4
	cmp	esi, esp
	call	__RTC_CheckEsp

; 537  :         }

	pop	edi
	pop	esi
	pop	ebx
	add	esp, 192				; 000000c0H
	cmp	ebp, esp
	call	__RTC_CheckEsp
	mov	esp, ebp
	pop	ebp
	ret	0
_time	ENDP
_TEXT	ENDS
; Function compile flags: /Odtp /RTCsu /ZI
; File C:\Program Files (x86)\Windows Kits\10\Include\10.0.18362.0\ucrt\stdio.h
;	COMDAT _scanf
_TEXT	SEGMENT
__ArgList$ = -20					; size = 4
__Result$ = -8						; size = 4
__Format$ = 8						; size = 4
_scanf	PROC						; COMDAT

; 1280 :     {

	push	ebp
	mov	ebp, esp
	sub	esp, 216				; 000000d8H
	push	ebx
	push	esi
	push	edi
	lea	edi, DWORD PTR [ebp-216]
	mov	ecx, 54					; 00000036H
	mov	eax, -858993460				; ccccccccH
	rep stosd
	mov	ecx, OFFSET __AD6A91B7_stdio@h
	call	@__CheckForDebuggerJustMyCode@4

; 1281 :         int _Result;
; 1282 :         va_list _ArgList;
; 1283 :         __crt_va_start(_ArgList, _Format);

	lea	eax, DWORD PTR __Format$[ebp+4]
	mov	DWORD PTR __ArgList$[ebp], eax

; 1284 :         _Result = _vfscanf_l(stdin, _Format, NULL, _ArgList);

	mov	eax, DWORD PTR __ArgList$[ebp]
	push	eax
	push	0
	mov	ecx, DWORD PTR __Format$[ebp]
	push	ecx
	mov	esi, esp
	push	0
	call	DWORD PTR __imp____acrt_iob_func
	add	esp, 4
	cmp	esi, esp
	call	__RTC_CheckEsp
	push	eax
	call	__vfscanf_l
	add	esp, 16					; 00000010H
	mov	DWORD PTR __Result$[ebp], eax

; 1285 :         __crt_va_end(_ArgList);

	mov	DWORD PTR __ArgList$[ebp], 0

; 1286 :         return _Result;

	mov	eax, DWORD PTR __Result$[ebp]

; 1287 :     }

	pop	edi
	pop	esi
	pop	ebx
	add	esp, 216				; 000000d8H
	cmp	ebp, esp
	call	__RTC_CheckEsp
	mov	esp, ebp
	pop	ebp
	ret	0
_scanf	ENDP
_TEXT	ENDS
; Function compile flags: /Odtp /RTCsu /ZI
; File C:\Program Files (x86)\Windows Kits\10\Include\10.0.18362.0\ucrt\stdio.h
;	COMDAT __vfscanf_l
_TEXT	SEGMENT
__Stream$ = 8						; size = 4
__Format$ = 12						; size = 4
__Locale$ = 16						; size = 4
__ArgList$ = 20						; size = 4
__vfscanf_l PROC					; COMDAT

; 1062 :     {

	push	ebp
	mov	ebp, esp
	sub	esp, 192				; 000000c0H
	push	ebx
	push	esi
	push	edi
	lea	edi, DWORD PTR [ebp-192]
	mov	ecx, 48					; 00000030H
	mov	eax, -858993460				; ccccccccH
	rep stosd
	mov	ecx, OFFSET __AD6A91B7_stdio@h
	call	@__CheckForDebuggerJustMyCode@4

; 1063 :         return __stdio_common_vfscanf(

	mov	esi, esp
	mov	eax, DWORD PTR __ArgList$[ebp]
	push	eax
	mov	ecx, DWORD PTR __Locale$[ebp]
	push	ecx
	mov	edx, DWORD PTR __Format$[ebp]
	push	edx
	mov	eax, DWORD PTR __Stream$[ebp]
	push	eax
	call	___local_stdio_scanf_options
	mov	ecx, DWORD PTR [eax+4]
	push	ecx
	mov	edx, DWORD PTR [eax]
	push	edx
	call	DWORD PTR __imp____stdio_common_vfscanf
	add	esp, 24					; 00000018H
	cmp	esi, esp
	call	__RTC_CheckEsp

; 1064 :             _CRT_INTERNAL_LOCAL_SCANF_OPTIONS,
; 1065 :             _Stream, _Format, _Locale, _ArgList);
; 1066 :     }

	pop	edi
	pop	esi
	pop	ebx
	add	esp, 192				; 000000c0H
	cmp	ebp, esp
	call	__RTC_CheckEsp
	mov	esp, ebp
	pop	ebp
	ret	0
__vfscanf_l ENDP
_TEXT	ENDS
; Function compile flags: /Odtp /RTCsu /ZI
; File C:\Program Files (x86)\Windows Kits\10\Include\10.0.18362.0\ucrt\stdio.h
;	COMDAT _printf
_TEXT	SEGMENT
__ArgList$ = -20					; size = 4
__Result$ = -8						; size = 4
__Format$ = 8						; size = 4
_printf	PROC						; COMDAT

; 954  :     {

	push	ebp
	mov	ebp, esp
	sub	esp, 216				; 000000d8H
	push	ebx
	push	esi
	push	edi
	lea	edi, DWORD PTR [ebp-216]
	mov	ecx, 54					; 00000036H
	mov	eax, -858993460				; ccccccccH
	rep stosd
	mov	ecx, OFFSET __AD6A91B7_stdio@h
	call	@__CheckForDebuggerJustMyCode@4

; 955  :         int _Result;
; 956  :         va_list _ArgList;
; 957  :         __crt_va_start(_ArgList, _Format);

	lea	eax, DWORD PTR __Format$[ebp+4]
	mov	DWORD PTR __ArgList$[ebp], eax

; 958  :         _Result = _vfprintf_l(stdout, _Format, NULL, _ArgList);

	mov	eax, DWORD PTR __ArgList$[ebp]
	push	eax
	push	0
	mov	ecx, DWORD PTR __Format$[ebp]
	push	ecx
	mov	esi, esp
	push	1
	call	DWORD PTR __imp____acrt_iob_func
	add	esp, 4
	cmp	esi, esp
	call	__RTC_CheckEsp
	push	eax
	call	__vfprintf_l
	add	esp, 16					; 00000010H
	mov	DWORD PTR __Result$[ebp], eax

; 959  :         __crt_va_end(_ArgList);

	mov	DWORD PTR __ArgList$[ebp], 0

; 960  :         return _Result;

	mov	eax, DWORD PTR __Result$[ebp]

; 961  :     }

	pop	edi
	pop	esi
	pop	ebx
	add	esp, 216				; 000000d8H
	cmp	ebp, esp
	call	__RTC_CheckEsp
	mov	esp, ebp
	pop	ebp
	ret	0
_printf	ENDP
_TEXT	ENDS
; Function compile flags: /Odtp /RTCsu /ZI
; File C:\Program Files (x86)\Windows Kits\10\Include\10.0.18362.0\ucrt\stdio.h
;	COMDAT __vfprintf_l
_TEXT	SEGMENT
__Stream$ = 8						; size = 4
__Format$ = 12						; size = 4
__Locale$ = 16						; size = 4
__ArgList$ = 20						; size = 4
__vfprintf_l PROC					; COMDAT

; 642  :     {

	push	ebp
	mov	ebp, esp
	sub	esp, 192				; 000000c0H
	push	ebx
	push	esi
	push	edi
	lea	edi, DWORD PTR [ebp-192]
	mov	ecx, 48					; 00000030H
	mov	eax, -858993460				; ccccccccH
	rep stosd
	mov	ecx, OFFSET __AD6A91B7_stdio@h
	call	@__CheckForDebuggerJustMyCode@4

; 643  :         return __stdio_common_vfprintf(_CRT_INTERNAL_LOCAL_PRINTF_OPTIONS, _Stream, _Format, _Locale, _ArgList);

	mov	esi, esp
	mov	eax, DWORD PTR __ArgList$[ebp]
	push	eax
	mov	ecx, DWORD PTR __Locale$[ebp]
	push	ecx
	mov	edx, DWORD PTR __Format$[ebp]
	push	edx
	mov	eax, DWORD PTR __Stream$[ebp]
	push	eax
	call	___local_stdio_printf_options
	mov	ecx, DWORD PTR [eax+4]
	push	ecx
	mov	edx, DWORD PTR [eax]
	push	edx
	call	DWORD PTR __imp____stdio_common_vfprintf
	add	esp, 24					; 00000018H
	cmp	esi, esp
	call	__RTC_CheckEsp

; 644  :     }

	pop	edi
	pop	esi
	pop	ebx
	add	esp, 192				; 000000c0H
	cmp	ebp, esp
	call	__RTC_CheckEsp
	mov	esp, ebp
	pop	ebp
	ret	0
__vfprintf_l ENDP
_TEXT	ENDS
; Function compile flags: /Odtp /RTCsu /ZI
; File C:\Program Files (x86)\Windows Kits\10\Include\10.0.18362.0\ucrt\corecrt_stdio_config.h
;	COMDAT ___local_stdio_scanf_options
_TEXT	SEGMENT
___local_stdio_scanf_options PROC			; COMDAT

; 96   :     {

	push	ebp
	mov	ebp, esp
	sub	esp, 192				; 000000c0H
	push	ebx
	push	esi
	push	edi
	lea	edi, DWORD PTR [ebp-192]
	mov	ecx, 48					; 00000030H
	mov	eax, -858993460				; ccccccccH
	rep stosd
	mov	ecx, OFFSET __F66CEB67_corecrt_stdio_config@h
	call	@__CheckForDebuggerJustMyCode@4

; 97   :         static unsigned __int64 _OptionsStorage;
; 98   :         return &_OptionsStorage;

	mov	eax, OFFSET ?_OptionsStorage@?1??__local_stdio_scanf_options@@9@9 ; `__local_stdio_scanf_options'::`2'::_OptionsStorage

; 99   :     }

	pop	edi
	pop	esi
	pop	ebx
	add	esp, 192				; 000000c0H
	cmp	ebp, esp
	call	__RTC_CheckEsp
	mov	esp, ebp
	pop	ebp
	ret	0
___local_stdio_scanf_options ENDP
_TEXT	ENDS
; Function compile flags: /Odtp /RTCsu /ZI
; File C:\Program Files (x86)\Windows Kits\10\Include\10.0.18362.0\ucrt\corecrt_stdio_config.h
;	COMDAT ___local_stdio_printf_options
_TEXT	SEGMENT
___local_stdio_printf_options PROC			; COMDAT

; 86   :     {

	push	ebp
	mov	ebp, esp
	sub	esp, 192				; 000000c0H
	push	ebx
	push	esi
	push	edi
	lea	edi, DWORD PTR [ebp-192]
	mov	ecx, 48					; 00000030H
	mov	eax, -858993460				; ccccccccH
	rep stosd
	mov	ecx, OFFSET __F66CEB67_corecrt_stdio_config@h
	call	@__CheckForDebuggerJustMyCode@4

; 87   :         static unsigned __int64 _OptionsStorage;
; 88   :         return &_OptionsStorage;

	mov	eax, OFFSET ?_OptionsStorage@?1??__local_stdio_printf_options@@9@9 ; `__local_stdio_printf_options'::`2'::_OptionsStorage

; 89   :     }

	pop	edi
	pop	esi
	pop	ebx
	add	esp, 192				; 000000c0H
	cmp	ebp, esp
	call	__RTC_CheckEsp
	mov	esp, ebp
	pop	ebp
	ret	0
___local_stdio_printf_options ENDP
_TEXT	ENDS
END
